; Function Attrs: nounwind uwtable
define range(i32 -1, 1) i32 @evtag_unmarshal_timeval(ptr noundef %0, i32 noundef %1, ptr noundef writeonly captures(none) %2) local_unnamed_addr #1 {
  %4 = alloca i32, align 4
  call void @llvm.lifetime.start.p0(i64 4, ptr nonnull %4) #7
  %5 = call i32 @evtag_unmarshal_header(ptr noundef %0, ptr noundef nonnull %4)
  %6 = icmp eq i32 %5, -1
  br i1 %6, label %75, label %7

7:                                                ; preds = %3
  %8 = load i32, ptr %4, align 4
  %.not = icmp eq i32 %8, %1
  br i1 %.not, label %9, label %decode_int_internal.exit.thread

9:                                                ; preds = %7
  %10 = call i64 @evbuffer_get_length(ptr noundef %0) #7
  %11 = icmp slt i64 %10, 1
  br i1 %11, label %decode_int_internal.exit.thread, label %12

12:                                               ; preds = %9
  %13 = call ptr @evbuffer_pullup(ptr noundef %0, i64 noundef 1) #7
  %.not.i = icmp eq ptr %13, null
  br i1 %.not.i, label %decode_int_internal.exit.thread, label %14

14:                                               ; preds = %12
  %15 = load i8, ptr %13, align 1
  %16 = lshr i8 %15, 4
  %narrow.i = add nuw nsw i8 %16, 1
  %17 = zext nneg i8 %narrow.i to i32
  %18 = icmp slt i8 %15, 0
  br i1 %18, label %decode_int_internal.exit.thread, label %19

19:                                               ; preds = %14
  %20 = lshr i32 %17, 1
  %21 = add nuw nsw i32 %20, 1
  %22 = zext nneg i32 %21 to i64
  %23 = icmp samesign ult i64 %10, %22
  br i1 %23, label %decode_int_internal.exit.thread, label %24

24:                                               ; preds = %19
  %25 = call ptr @evbuffer_pullup(ptr noundef %0, i64 noundef %22) #7
  %.not36.i = icmp eq ptr %25, null
  br i1 %.not36.i, label %decode_int_internal.exit.thread, label %.preheader.i

.preheader.i:                                     ; preds = %24, %.preheader.i
  %.039.i = phi i32 [ %34, %.preheader.i ], [ %17, %24 ]
  %.03038.i = phi i32 [ %.1.i, %.preheader.i ], [ 0, %24 ]
  %26 = shl i32 %.03038.i, 4
  %27 = and i32 %.039.i, 1
  %.not37.i = icmp eq i32 %27, 0
  %28 = lshr i32 %.039.i, 1
  %29 = zext nneg i32 %28 to i64
  %30 = getelementptr inbounds nuw i8, ptr %25, i64 %29
  %31 = load i8, ptr %30, align 1
  %32 = and i8 %31, 15
  %33 = lshr i8 %31, 4
  %.pn.in.i = select i1 %.not37.i, i8 %33, i8 %32
  %.pn.i = zext nneg i8 %.pn.in.i to i32
  %.1.i = or disjoint i32 %26, %.pn.i
  %34 = add nsw i32 %.039.i, -1
  %35 = icmp samesign ugt i32 %.039.i, 1
  br i1 %35, label %.preheader.i, label %decode_int_internal.exit, !llvm.loop !7

decode_int_internal.exit:                         ; preds = %.preheader.i
  %36 = zext i32 %.1.i to i64
  store i64 %36, ptr %2, align 8
  %37 = call i64 @evbuffer_get_length(ptr noundef %0) #7
  %38 = sub i64 %37, %22
  %39 = icmp slt i64 %38, 1
  br i1 %39, label %decode_int_internal.exit.thread, label %40

40:                                               ; preds = %decode_int_internal.exit
  %41 = add nuw nsw i32 %20, 2
  %42 = zext nneg i32 %41 to i64
  %43 = call ptr @evbuffer_pullup(ptr noundef %0, i64 noundef %42) #7
  %.not.i17 = icmp eq ptr %43, null
  br i1 %.not.i17, label %decode_int_internal.exit.thread, label %44

44:                                               ; preds = %40
  %45 = getelementptr inbounds nuw i8, ptr %43, i64 %22
  %46 = load i8, ptr %45, align 1
  %47 = lshr i8 %46, 4
  %narrow.i18 = add nuw nsw i8 %47, 1
  %48 = zext nneg i8 %narrow.i18 to i32
  %49 = icmp slt i8 %46, 0
  br i1 %49, label %decode_int_internal.exit.thread, label %50

50:                                               ; preds = %44
  %51 = lshr i32 %48, 1
  %52 = add nuw nsw i32 %51, 1
  %53 = zext nneg i32 %52 to i64
  %54 = icmp samesign ult i64 %38, %53
  br i1 %54, label %decode_int_internal.exit.thread, label %55

55:                                               ; preds = %50
  %56 = add nuw nsw i64 %53, %22
  %57 = call ptr @evbuffer_pullup(ptr noundef %0, i64 noundef %56) #7
  %58 = getelementptr inbounds nuw i8, ptr %57, i64 %22
  %.not36.i19 = icmp eq ptr %57, null
  br i1 %.not36.i19, label %decode_int_internal.exit.thread, label %.preheader.i20

.preheader.i20:                                   ; preds = %55, %.preheader.i20
  %.039.i21 = phi i32 [ %67, %.preheader.i20 ], [ %48, %55 ]
  %.03038.i22 = phi i32 [ %.1.i26, %.preheader.i20 ], [ 0, %55 ]
  %59 = shl i32 %.03038.i22, 4
  %60 = and i32 %.039.i21, 1
  %.not37.i23 = icmp eq i32 %60, 0
  %61 = lshr i32 %.039.i21, 1
  %62 = zext nneg i32 %61 to i64
  %63 = getelementptr inbounds nuw i8, ptr %58, i64 %62
  %64 = load i8, ptr %63, align 1
  %65 = and i8 %64, 15
  %66 = lshr i8 %64, 4
  %.pn.in.i24 = select i1 %.not37.i23, i8 %66, i8 %65
  %.pn.i25 = zext nneg i8 %.pn.in.i24 to i32
  %.1.i26 = or disjoint i32 %59, %.pn.i25
  %67 = add nsw i32 %.039.i21, -1
  %68 = icmp samesign ugt i32 %.039.i21, 1
  br i1 %68, label %.preheader.i20, label %decode_int_internal.exit28, !llvm.loop !7

decode_int_internal.exit28:                       ; preds = %.preheader.i20
  %69 = zext i32 %.1.i26 to i64
  %70 = getelementptr inbounds nuw i8, ptr %2, i64 8
  store i64 %69, ptr %70, align 8
  %71 = add nuw nsw i32 %52, %21
  %72 = icmp sgt i32 %71, %5
  %spec.select = sext i1 %72 to i32
  br label %decode_int_internal.exit.thread

decode_int_internal.exit.thread:                  ; preds = %55, %44, %50, %40, %decode_int_internal.exit, %24, %14, %19, %12, %9, %decode_int_internal.exit28, %7
  %.0 = phi i32 [ -1, %7 ], [ %spec.select, %decode_int_internal.exit28 ], [ -1, %9 ], [ -1, %12 ], [ -1, %19 ], [ -1, %14 ], [ -1, %24 ], [ -1, %decode_int_internal.exit ], [ -1, %40 ], [ -1, %50 ], [ -1, %44 ], [ -1, %55 ]
  %73 = sext i32 %5 to i64
  %74 = call i32 @evbuffer_drain(ptr noundef %0, i64 noundef %73) #7
  br label %75

75:                                               ; preds = %3, %decode_int_internal.exit.thread
  %.013 = phi i32 [ %.0, %decode_int_internal.exit.thread ], [ -1, %3 ]
  call void @llvm.lifetime.end.p0(i64 4, ptr nonnull %4) #7
  ret i32 %.013
}